target datalayout = "e-m:e-p270:32:32-p271:32:32-p272:64:64-i64:64-i128:128-f80:128-n8:16:32:64-S128"
target triple = "x86_64-pc-linux-gnu"

%"class.std::error_code" = type { i32, ptr }

; Function Attrs: mustprogress nounwind uwtable
define linkonce_odr hidden noundef zeroext i1 @_ZNKSt10error_codecvbEv(ptr noundef nonnull align 8 dereferenceable(16) %0) #0 comdat align 2 {
  %2 = alloca ptr, align 8
  store ptr %0, ptr %2, align 8
  %3 = load ptr, ptr %2, align 8
  %4 = getelementptr inbounds nuw %"class.std::error_code", ptr %3, i32 0, i32 0
  %5 = load i32, ptr %4, align 8
  %6 = icmp ne i32 %5, 0
  ret i1 %6
}

; Function Attrs: mustprogress nounwind uwtable
define linkonce_odr hidden noundef zeroext i1 @_ZN4llvm3sys2fs6existsERKNS_5TwineE(ptr noundef nonnull align 8 dereferenceable(34) %0) #0 comdat {
  %2 = alloca ptr, align 8
  %3 = alloca %"class.std::error_code", align 8
  store ptr %0, ptr %2, align 8
  %4 = load ptr, ptr %2, align 8
  %5 = call { i32, ptr } @_ZN4llvm3sys2fs6accessERKNS_5TwineENS1_10AccessModeE(ptr noundef nonnull align 8 dereferenceable(34) %4, i32 noundef 0)
  %6 = getelementptr inbounds nuw { i32, ptr }, ptr %3, i32 0, i32 0
  %7 = extractvalue { i32, ptr } %5, 0
  store i32 %7, ptr %6, align 8
  %8 = getelementptr inbounds nuw { i32, ptr }, ptr %3, i32 0, i32 1
  %9 = extractvalue { i32, ptr } %5, 1
  store ptr %9, ptr %8, align 8
  %10 = call noundef zeroext i1 @_ZNKSt10error_codecvbEv(ptr noundef nonnull align 8 dereferenceable(16) %3) #12
  %11 = xor i1 %10, true
  ret i1 %11
}

; Function Attrs: mustprogress nounwind uwtable
define dso_local void @_ZN5clang6driver9ToolChain31addExternCSystemIncludeIfExistsERKN4llvm3opt7ArgListERNS2_11SmallVectorIPKcLj16EEERKNS2_5TwineE(ptr noundef nonnull align 8 dereferenceable(176) %0, ptr noundef nonnull align 8 dereferenceable(144) %1, ptr noundef nonnull align 8 dereferenceable(34) %2) #0 align 2 {
  %4 = alloca ptr, align 8
  %5 = alloca ptr, align 8
  %6 = alloca ptr, align 8
  store ptr %0, ptr %4, align 8
  store ptr %1, ptr %5, align 8
  store ptr %2, ptr %6, align 8
  %7 = load ptr, ptr %6, align 8
  %8 = call noundef zeroext i1 @_ZN4llvm3sys2fs6existsERKNS_5TwineE(ptr noundef nonnull align 8 dereferenceable(34) %7)
  br i1 %8, label %9, label %13

9:                                                ; preds = %3
  %10 = load ptr, ptr %4, align 8
  %11 = load ptr, ptr %5, align 8
  %12 = load ptr, ptr %6, align 8
  call void @_ZN5clang6driver9ToolChain23addExternCSystemIncludeERKN4llvm3opt7ArgListERNS2_11SmallVectorIPKcLj16EEERKNS2_5TwineE(ptr noundef nonnull align 8 dereferenceable(176) %10, ptr noundef nonnull align 8 dereferenceable(144) %11, ptr noundef nonnull align 8 dereferenceable(34) %12)
  br label %13

13:                                               ; preds = %9, %3
  ret void
}