; Function Attrs: mustprogress nounwind uwtable
define dso_local void @_ZN5clang6driver9ToolChain31addExternCSystemIncludeIfExistsERKN4llvm3opt7ArgListERNS2_11SmallVectorIPKcLj16EEERKNS2_5TwineE(ptr noundef nonnull align 8 dereferenceable(176) %0, ptr noundef nonnull align 8 dereferenceable(144) %1, ptr noundef nonnull align 8 dereferenceable(34) %2) local_unnamed_addr #0 align 2 {
  %4 = tail call { i32, ptr } @_ZN4llvm3sys2fs6accessERKNS_5TwineENS1_10AccessModeE(ptr noundef nonnull align 8 dereferenceable(34) %2, i32 noundef 0) #25
  %5 = extractvalue { i32, ptr } %4, 0
  %.not.i = icmp eq i32 %5, 0
  br i1 %.not.i, label %6, label %7

6:                                                ; preds = %3
  tail call void @_ZN5clang6driver9ToolChain23addExternCSystemIncludeERKN4llvm3opt7ArgListERNS2_11SmallVectorIPKcLj16EEERKNS2_5TwineE(ptr noundef nonnull align 8 dereferenceable(176) %0, ptr noundef nonnull align 8 dereferenceable(144) %1, ptr noundef nonnull align 8 dereferenceable(34) %2)
  br label %7

7:                                                ; preds = %6, %3
  ret void
}